target datalayout = "e-m:e-p270:32:32-p271:32:32-p272:64:64-i64:64-i128:128-f80:128-n8:16:32:64-S128"
target triple = "x86_64-pc-linux-gnu"

%"class.cv::Matx.0" = type { [16 x float] }
%"class.cv::Affine3" = type { %"class.cv::Matx.0" }
%"class.cv::kinfu::Volume" = type <{ ptr, float, float, %"class.cv::Affine3", float, [4 x i8] }>
%"class.cv::Vec.10" = type { %"class.cv::Matx.11" }
%"class.cv::Matx.11" = type { [3 x i32] }
%"class.cv::Point3_" = type { float, float, float }

; Function Attrs: inlinehint mustprogress nounwind uwtable
define linkonce_odr hidden void @_ZN2cv4MatxIiLi3ELi1EEC2Eiii(ptr noundef nonnull align 4 dereferenceable(12) %0, i32 noundef %1, i32 noundef %2, i32 noundef %3) unnamed_addr #8 comdat align 2 {
  %5 = alloca ptr, align 8
  %6 = alloca i32, align 4
  %7 = alloca i32, align 4
  %8 = alloca i32, align 4
  %9 = alloca i32, align 4
  store ptr %0, ptr %5, align 8, !tbaa !338
  store i32 %1, ptr %6, align 4, !tbaa !12
  store i32 %2, ptr %7, align 4, !tbaa !12
  store i32 %3, ptr %8, align 4, !tbaa !12
  %10 = load ptr, ptr %5, align 8
  %11 = load i32, ptr %6, align 4, !tbaa !12
  %12 = getelementptr inbounds nuw %"class.cv::Matx.11", ptr %10, i32 0, i32 0
  %13 = getelementptr inbounds [3 x i32], ptr %12, i64 0, i64 0
  store i32 %11, ptr %13, align 4, !tbaa !12
  %14 = load i32, ptr %7, align 4, !tbaa !12
  %15 = getelementptr inbounds nuw %"class.cv::Matx.11", ptr %10, i32 0, i32 0
  %16 = getelementptr inbounds [3 x i32], ptr %15, i64 0, i64 1
  store i32 %14, ptr %16, align 4, !tbaa !12
  %17 = load i32, ptr %8, align 4, !tbaa !12
  %18 = getelementptr inbounds nuw %"class.cv::Matx.11", ptr %10, i32 0, i32 0
  %19 = getelementptr inbounds [3 x i32], ptr %18, i64 0, i64 2
  store i32 %17, ptr %19, align 4, !tbaa !12
  call void @llvm.lifetime.start.p0(i64 4, ptr %9) #3
  store i32 3, ptr %9, align 4, !tbaa !12
  br label %20

20:                                               ; preds = %29, %4
  %21 = load i32, ptr %9, align 4, !tbaa !12
  %22 = icmp slt i32 %21, 3
  br i1 %22, label %24, label %23

23:                                               ; preds = %20
  call void @llvm.lifetime.end.p0(i64 4, ptr %9) #3
  br label %32

24:                                               ; preds = %20
  %25 = getelementptr inbounds nuw %"class.cv::Matx.11", ptr %10, i32 0, i32 0
  %26 = load i32, ptr %9, align 4, !tbaa !12
  %27 = sext i32 %26 to i64
  %28 = getelementptr inbounds [3 x i32], ptr %25, i64 0, i64 %27
  store i32 0, ptr %28, align 4, !tbaa !12
  br label %29

29:                                               ; preds = %24
  %30 = load i32, ptr %9, align 4, !tbaa !12
  %31 = add nsw i32 %30, 1
  store i32 %31, ptr %9, align 4, !tbaa !12
  br label %20, !llvm.loop !434

32:                                               ; preds = %23
  ret void
}

; Function Attrs: inlinehint mustprogress uwtable
define linkonce_odr hidden void @_ZN2cv3VecIiLi3EEC2Eiii(ptr noundef nonnull align 4 dereferenceable(12) %0, i32 noundef %1, i32 noundef %2, i32 noundef %3) unnamed_addr #4 comdat align 2 {
  %5 = alloca ptr, align 8
  %6 = alloca i32, align 4
  %7 = alloca i32, align 4
  %8 = alloca i32, align 4
  store ptr %0, ptr %5, align 8, !tbaa !169
  store i32 %1, ptr %6, align 4, !tbaa !12
  store i32 %2, ptr %7, align 4, !tbaa !12
  store i32 %3, ptr %8, align 4, !tbaa !12
  %9 = load ptr, ptr %5, align 8
  %10 = load i32, ptr %6, align 4, !tbaa !12
  %11 = load i32, ptr %7, align 4, !tbaa !12
  %12 = load i32, ptr %8, align 4, !tbaa !12
  call void @_ZN2cv4MatxIiLi3ELi1EEC2Eiii(ptr noundef nonnull align 4 dereferenceable(12) %9, i32 noundef %10, i32 noundef %11, i32 noundef %12)
  ret void
}

; Function Attrs: inlinehint mustprogress nounwind uwtable
define internal noundef i32 @_ZL7cvFloorf(float noundef %0) #8 {
  %2 = alloca float, align 4
  store float %0, ptr %2, align 4, !tbaa !8
  %3 = load float, ptr %2, align 4, !tbaa !8
  %4 = call float @llvm.floor.f32(float %3)
  %5 = fptosi float %4 to i32
  ret i32 %5
}

; Function Attrs: mustprogress uwtable
define hidden void @_ZNK2cv5kinfu17HashTSDFVolumeCPU18volumeToVoxelCoordERKNS_7Point3_IfEE(ptr dead_on_unwind noalias writable sret(%"class.cv::Vec.10") align 4 %0, ptr noundef nonnull align 8 dereferenceable(404) %1, ptr noundef nonnull align 4 dereferenceable(12) %2) #6 align 2 {
  %4 = alloca ptr, align 8
  %5 = alloca ptr, align 8
  %6 = alloca ptr, align 8
  store ptr %0, ptr %4, align 8
  store ptr %1, ptr %5, align 8, !tbaa !50
  store ptr %2, ptr %6, align 8, !tbaa !111
  %7 = load ptr, ptr %5, align 8
  %8 = load ptr, ptr %6, align 8, !tbaa !111
  %9 = getelementptr inbounds nuw %"class.cv::Point3_", ptr %8, i32 0, i32 0
  %10 = load float, ptr %9, align 4, !tbaa !142
  %11 = getelementptr inbounds nuw %"class.cv::kinfu::Volume", ptr %7, i32 0, i32 2
  %12 = load float, ptr %11, align 4, !tbaa !38
  %13 = fmul float %10, %12
  %14 = call noundef i32 @_ZL7cvFloorf(float noundef %13)
  %15 = load ptr, ptr %6, align 8, !tbaa !111
  %16 = getelementptr inbounds nuw %"class.cv::Point3_", ptr %15, i32 0, i32 1
  %17 = load float, ptr %16, align 4, !tbaa !144
  %18 = getelementptr inbounds nuw %"class.cv::kinfu::Volume", ptr %7, i32 0, i32 2
  %19 = load float, ptr %18, align 4, !tbaa !38
  %20 = fmul float %17, %19
  %21 = call noundef i32 @_ZL7cvFloorf(float noundef %20)
  %22 = load ptr, ptr %6, align 8, !tbaa !111
  %23 = getelementptr inbounds nuw %"class.cv::Point3_", ptr %22, i32 0, i32 2
  %24 = load float, ptr %23, align 4, !tbaa !145
  %25 = getelementptr inbounds nuw %"class.cv::kinfu::Volume", ptr %7, i32 0, i32 2
  %26 = load float, ptr %25, align 4, !tbaa !38
  %27 = fmul float %24, %26
  %28 = call noundef i32 @_ZL7cvFloorf(float noundef %27)
  call void @_ZN2cv3VecIiLi3EEC2Eiii(ptr noundef nonnull align 4 dereferenceable(12) %0, i32 noundef %14, i32 noundef %21, i32 noundef %28)
  ret void
}