; Function Attrs: mustprogress nofree norecurse nosync nounwind willreturn memory(argmem: readwrite) uwtable
define hidden void @_ZNK2cv5kinfu17HashTSDFVolumeCPU18volumeToVoxelCoordERKNS_7Point3_IfEE(ptr dead_on_unwind noalias writable writeonly sret(%"class.cv::Vec.10") align 4 captures(none) initializes((0, 12)) %0, ptr noundef nonnull readonly align 8 captures(none) dereferenceable(404) %1, ptr noundef nonnull readonly align 4 captures(none) dereferenceable(12) %2) local_unnamed_addr #12 align 2 {
  %4 = load float, ptr %2, align 4, !tbaa !115
  %5 = getelementptr inbounds nuw i8, ptr %1, i64 12
  %6 = load float, ptr %5, align 4, !tbaa !10
  %7 = fmul float %4, %6
  %8 = tail call float @llvm.floor.f32(float %7)
  %9 = fptosi float %8 to i32
  %10 = getelementptr inbounds nuw i8, ptr %2, i64 4
  %11 = load float, ptr %10, align 4, !tbaa !117
  %12 = fmul float %6, %11
  %13 = tail call float @llvm.floor.f32(float %12)
  %14 = fptosi float %13 to i32
  %15 = getelementptr inbounds nuw i8, ptr %2, i64 8
  %16 = load float, ptr %15, align 4, !tbaa !118
  %17 = fmul float %6, %16
  %18 = tail call float @llvm.floor.f32(float %17)
  %19 = fptosi float %18 to i32
  store i32 %9, ptr %0, align 4, !tbaa !24
  %20 = getelementptr inbounds nuw i8, ptr %0, i64 4
  store i32 %14, ptr %20, align 4, !tbaa !24
  %21 = getelementptr inbounds nuw i8, ptr %0, i64 8
  store i32 %19, ptr %21, align 4, !tbaa !24
  ret void
}